target datalayout = "e-m:e-p270:32:32-p271:32:32-p272:64:64-i64:64-i128:128-f80:128-n8:16:32:64-S128"
target triple = "x86_64-pc-linux-gnu"

%"class.llvm::codeview::ClassRecord" = type { %"class.llvm::codeview::TagRecord", %"class.llvm::codeview::TypeIndex", %"class.llvm::codeview::TypeIndex", i64 }
%"class.llvm::codeview::TagRecord" = type { %"class.llvm::codeview::TypeRecord", i16, i16, %"class.llvm::codeview::TypeIndex", %"class.llvm::StringRef", %"class.llvm::StringRef" }
%"class.llvm::codeview::TypeRecord" = type { i16 }
%"class.llvm::StringRef" = type { ptr, i64 }
%"class.llvm::codeview::TypeIndex" = type { %"struct.llvm::support::detail::packed_endian_specific_integral" }
%"struct.llvm::support::detail::packed_endian_specific_integral" = type { %struct.anon }
%struct.anon = type { [4 x i8] }
%"class.llvm::pdb::NativeTypeUDT" = type <{ %"class.llvm::pdb::NativeRawSymbol", %"class.llvm::codeview::TypeIndex", [4 x i8], %"class.std::optional", %"class.std::optional.0", ptr, ptr, %"class.std::optional.8", [6 x i8] }>
%"class.llvm::pdb::NativeRawSymbol" = type { %"class.llvm::pdb::IPDBRawSymbol", ptr, i32, i32 }
%"class.llvm::pdb::IPDBRawSymbol" = type { ptr }
%"class.std::optional" = type { %"struct.std::_Optional_base" }
%"struct.std::_Optional_base" = type { %"struct.std::_Optional_payload" }
%"struct.std::_Optional_payload" = type { %"struct.std::_Optional_payload_base.base", [7 x i8] }
%"struct.std::_Optional_payload_base.base" = type <{ %"union.std::_Optional_payload_base<llvm::codeview::ClassRecord>::_Storage", i8 }>
%"union.std::_Optional_payload_base<llvm::codeview::ClassRecord>::_Storage" = type { %"class.llvm::codeview::ClassRecord" }
%"class.std::optional.0" = type { %"struct.std::_Optional_base.1" }
%"struct.std::_Optional_base.1" = type { %"struct.std::_Optional_payload.3" }
%"struct.std::_Optional_payload.3" = type { %"struct.std::_Optional_payload_base.base.5", [7 x i8] }
%"struct.std::_Optional_payload_base.base.5" = type <{ %"union.std::_Optional_payload_base<llvm::codeview::UnionRecord>::_Storage", i8 }>
%"union.std::_Optional_payload_base<llvm::codeview::UnionRecord>::_Storage" = type { %"struct.llvm::codeview::UnionRecord" }
%"struct.llvm::codeview::UnionRecord" = type { %"class.llvm::codeview::TagRecord", i64 }
%"class.std::optional.8" = type { %"struct.std::_Optional_base.9" }
%"struct.std::_Optional_base.9" = type { %"struct.std::_Optional_payload.11" }
%"struct.std::_Optional_payload.11" = type { %"struct.std::_Optional_payload_base.base.13", i8 }
%"struct.std::_Optional_payload_base.base.13" = type <{ %"union.std::_Optional_payload_base<llvm::codeview::ModifierRecord>::_Storage", i8 }>
%"union.std::_Optional_payload_base<llvm::codeview::ModifierRecord>::_Storage" = type { %"class.llvm::codeview::ModifierRecord" }
%"class.llvm::codeview::ModifierRecord" = type { %"class.llvm::codeview::TypeRecord", %"class.llvm::codeview::TypeIndex", i16 }
%"struct.std::_Optional_payload_base.12" = type <{ %"union.std::_Optional_payload_base<llvm::codeview::ModifierRecord>::_Storage", i8, i8 }>

; Function Attrs: mustprogress nounwind uwtable
define linkonce_odr hidden noundef nonnull align 2 dereferenceable(8) ptr @_ZNKSt22_Optional_payload_baseIN4llvm8codeview14ModifierRecordEE6_M_getEv(ptr noundef nonnull align 2 dereferenceable(9) %0) #0 comdat align 2 {
  %2 = alloca ptr, align 8
  store ptr %0, ptr %2, align 8
  %3 = load ptr, ptr %2, align 8
  %4 = getelementptr inbounds nuw %"struct.std::_Optional_payload_base.12", ptr %3, i32 0, i32 0
  ret ptr %4
}

; Function Attrs: mustprogress nounwind uwtable
define linkonce_odr hidden noundef zeroext i16 @_ZN4llvm13to_underlyingINS_8codeview15ModifierOptionsEEENSt15underlying_typeIT_E4typeES4_(i16 noundef zeroext %0) #0 comdat {
  %2 = alloca i16, align 2
  store i16 %0, ptr %2, align 2
  %3 = load i16, ptr %2, align 2
  ret i16 %3
}

; Function Attrs: mustprogress nounwind uwtable
define linkonce_odr hidden noundef nonnull align 2 dereferenceable(8) ptr @_ZNKSt19_Optional_base_implIN4llvm8codeview14ModifierRecordESt14_Optional_baseIS2_Lb1ELb1EEE6_M_getEv(ptr noundef nonnull align 1 dereferenceable(1) %0) #0 comdat align 2 {
  %2 = alloca ptr, align 8
  store ptr %0, ptr %2, align 8
  %3 = load ptr, ptr %2, align 8
  br label %4

4:                                                ; preds = %1
  br label %5

5:                                                ; preds = %4
  %6 = getelementptr inbounds nuw %"struct.std::_Optional_base.9", ptr %3, i32 0, i32 0
  %7 = call noundef nonnull align 2 dereferenceable(8) ptr @_ZNKSt22_Optional_payload_baseIN4llvm8codeview14ModifierRecordEE6_M_getEv(ptr noundef nonnull align 2 dereferenceable(9) %6) #7
  ret ptr %7
}

; Function Attrs: mustprogress nounwind uwtable
define linkonce_odr hidden noundef zeroext i1 @_ZNKSt19_Optional_base_implIN4llvm8codeview14ModifierRecordESt14_Optional_baseIS2_Lb1ELb1EEE13_M_is_engagedEv(ptr noundef nonnull align 1 dereferenceable(1) %0) #0 comdat align 2 {
  %2 = alloca ptr, align 8
  store ptr %0, ptr %2, align 8
  %3 = load ptr, ptr %2, align 8
  %4 = getelementptr inbounds nuw %"struct.std::_Optional_base.9", ptr %3, i32 0, i32 0
  %5 = getelementptr inbounds nuw %"struct.std::_Optional_payload_base.12", ptr %4, i32 0, i32 1
  %6 = load i8, ptr %5, align 2
  %7 = trunc i8 %6 to i1
  ret i1 %7
}

; Function Attrs: mustprogress nounwind uwtable
define linkonce_odr hidden noundef zeroext i16 @_ZN4llvm8codeviewanENS0_15ModifierOptionsES1_(i16 noundef zeroext %0, i16 noundef zeroext %1) #0 comdat {
  %3 = alloca i16, align 2
  %4 = alloca i16, align 2
  store i16 %0, ptr %3, align 2
  store i16 %1, ptr %4, align 2
  %5 = load i16, ptr %3, align 2
  %6 = call noundef zeroext i16 @_ZN4llvm13to_underlyingINS_8codeview15ModifierOptionsEEENSt15underlying_typeIT_E4typeES4_(i16 noundef zeroext %5)
  %7 = zext i16 %6 to i32
  %8 = load i16, ptr %4, align 2
  %9 = call noundef zeroext i16 @_ZN4llvm13to_underlyingINS_8codeview15ModifierOptionsEEENSt15underlying_typeIT_E4typeES4_(i16 noundef zeroext %8)
  %10 = zext i16 %9 to i32
  %11 = and i32 %7, %10
  %12 = trunc i32 %11 to i16
  ret i16 %12
}

; Function Attrs: mustprogress nounwind uwtable
define linkonce_odr hidden noundef ptr @_ZNKSt8optionalIN4llvm8codeview14ModifierRecordEEptEv(ptr noundef nonnull align 2 dereferenceable(10) %0) #0 comdat align 2 {
  %2 = alloca ptr, align 8
  store ptr %0, ptr %2, align 8
  %3 = load ptr, ptr %2, align 8
  %4 = call noundef nonnull align 2 dereferenceable(8) ptr @_ZNKSt19_Optional_base_implIN4llvm8codeview14ModifierRecordESt14_Optional_baseIS2_Lb1ELb1EEE6_M_getEv(ptr noundef nonnull align 1 dereferenceable(1) %3) #7
  ret ptr %4
}

; Function Attrs: mustprogress nounwind uwtable
define linkonce_odr hidden noundef zeroext i1 @_ZNKSt8optionalIN4llvm8codeview14ModifierRecordEEcvbEv(ptr noundef nonnull align 2 dereferenceable(10) %0) #0 comdat align 2 {
  %2 = alloca ptr, align 8
  store ptr %0, ptr %2, align 8
  %3 = load ptr, ptr %2, align 8
  %4 = call noundef zeroext i1 @_ZNKSt19_Optional_base_implIN4llvm8codeview14ModifierRecordESt14_Optional_baseIS2_Lb1ELb1EEE13_M_is_engagedEv(ptr noundef nonnull align 1 dereferenceable(1) %3) #7
  ret i1 %4
}

; Function Attrs: mustprogress nounwind uwtable
define dso_local noundef zeroext i1 @_ZNK4llvm3pdb13NativeTypeUDT11isConstTypeEv(ptr noundef nonnull align 8 dereferenceable(194) %0) unnamed_addr #0 align 2 {
  %2 = alloca i1, align 1
  %3 = alloca ptr, align 8
  store ptr %0, ptr %3, align 8
  %4 = load ptr, ptr %3, align 8
  %5 = getelementptr inbounds nuw %"class.llvm::pdb::NativeTypeUDT", ptr %4, i32 0, i32 7
  %6 = call noundef zeroext i1 @_ZNKSt8optionalIN4llvm8codeview14ModifierRecordEEcvbEv(ptr noundef nonnull align 2 dereferenceable(10) %5) #7
  br i1 %6, label %8, label %7

7:                                                ; preds = %1
  store i1 false, ptr %2, align 1
  br label %15

8:                                                ; preds = %1
  %9 = getelementptr inbounds nuw %"class.llvm::pdb::NativeTypeUDT", ptr %4, i32 0, i32 7
  %10 = call noundef ptr @_ZNKSt8optionalIN4llvm8codeview14ModifierRecordEEptEv(ptr noundef nonnull align 2 dereferenceable(10) %9) #7
  %11 = getelementptr inbounds nuw %"class.llvm::codeview::ModifierRecord", ptr %10, i32 0, i32 2
  %12 = load i16, ptr %11, align 2
  %13 = call noundef zeroext i16 @_ZN4llvm8codeviewanENS0_15ModifierOptionsES1_(i16 noundef zeroext %12, i16 noundef zeroext 1)
  %14 = icmp ne i16 %13, 0
  store i1 %14, ptr %2, align 1
  br label %15

15:                                               ; preds = %8, %7
  %16 = load i1, ptr %2, align 1
  ret i1 %16
}