; Function Attrs: mustprogress nofree norecurse nosync nounwind willreturn memory(argmem: read) uwtable
define dso_local noundef zeroext i1 @_ZNK4llvm3pdb13NativeTypeUDT11isConstTypeEv(ptr nocapture noundef nonnull readonly align 8 dereferenceable(194) %0) unnamed_addr #6 align 2 {
  %2 = getelementptr inbounds i8, ptr %0, i64 192
  %3 = load i8, ptr %2, align 8
  %4 = trunc i8 %3 to i1
  %5 = getelementptr inbounds i8, ptr %0, i64 190
  %6 = load i16, ptr %5, align 2
  %7 = and i16 %6, 1
  %8 = icmp ne i16 %7, 0
  %.0 = select i1 %4, i1 %8, i1 false
  ret i1 %.0
}